ARM GAS  C:\Users\bibiw\AppData\Local\Temp\ccgGf511.s 			page 1


   1              		.syntax unified
   2              		.cpu cortex-m0
   3              		.fpu softvfp
   4              		.eabi_attribute 20, 1
   5              		.eabi_attribute 21, 1
   6              		.eabi_attribute 23, 3
   7              		.eabi_attribute 24, 1
   8              		.eabi_attribute 25, 1
   9              		.eabi_attribute 26, 1
  10              		.eabi_attribute 30, 1
  11              		.eabi_attribute 34, 0
  12              		.eabi_attribute 18, 4
  13              		.thumb
  14              		.syntax unified
  15              		.file	"main.c"
  16              		.text
  17              	.Ltext0:
  18              		.cfi_sections	.debug_frame
  19              		.section	.text.timer_isr_interrupt,"ax",%progbits
  20              		.align	2
  21              		.global	timer_isr_interrupt
  22              		.code	16
  23              		.thumb_func
  24              		.type	timer_isr_interrupt, %function
  25              	timer_isr_interrupt:
  26              	.LFB32:
  27              		.file 1 "main.c"
   1:main.c        **** /* ========================================
   2:main.c        ****  *
   3:main.c        ****  * Copyright YOUR COMPANY, THE YEAR
   4:main.c        ****  * All Rights Reserved
   5:main.c        ****  * UNPUBLISHED, LICENSED SOFTWARE.
   6:main.c        ****  *
   7:main.c        ****  * CONFIDENTIAL AND PROPRIETARY INFORMATION
   8:main.c        ****  * WHICH IS THE PROPERTY OF your company.
   9:main.c        ****  *
  10:main.c        ****  * ========================================
  11:main.c        **** */
  12:main.c        **** #include "project.h"
  13:main.c        **** 
  14:main.c        **** uint8 counter;
  15:main.c        **** CYBIT mode;
  16:main.c        **** 
  17:main.c        **** CY_ISR(timer_isr_interrupt) 
  18:main.c        **** {
  28              		.loc 1 18 0
  29              		.cfi_startproc
  30              		@ args = 0, pretend = 0, frame = 0
  31              		@ frame_needed = 0, uses_anonymous_args = 0
  32 0000 10B5     		push	{r4, lr}
  33              		.cfi_def_cfa_offset 8
  34              		.cfi_offset 4, -8
  35              		.cfi_offset 14, -4
  19:main.c        ****     
  20:main.c        ****     if(counter++ >= 20) 
  36              		.loc 1 20 0
  37 0002 064A     		ldr	r2, .L3
ARM GAS  C:\Users\bibiw\AppData\Local\Temp\ccgGf511.s 			page 2


  38 0004 1378     		ldrb	r3, [r2]
  39 0006 591C     		adds	r1, r3, #1
  40 0008 1170     		strb	r1, [r2]
  41 000a 132B     		cmp	r3, #19
  42 000c 02D9     		bls	.L2
  21:main.c        ****     {
  22:main.c        ****         counter = 0;
  43              		.loc 1 22 0
  44 000e 0022     		movs	r2, #0
  45 0010 024B     		ldr	r3, .L3
  46 0012 1A70     		strb	r2, [r3]
  47              	.L2:
  23:main.c        ****     }
  24:main.c        ****     Timer_Counter_ClearInterrupt(Timer_Counter_INTR_MASK_TC);
  48              		.loc 1 24 0
  49 0014 0120     		movs	r0, #1
  50 0016 FFF7FEFF 		bl	Timer_Counter_ClearInterrupt
  51              	.LVL0:
  25:main.c        **** }
  52              		.loc 1 25 0
  53              		@ sp needed
  54 001a 10BD     		pop	{r4, pc}
  55              	.L4:
  56              		.align	2
  57              	.L3:
  58 001c 00000000 		.word	counter
  59              		.cfi_endproc
  60              	.LFE32:
  61              		.size	timer_isr_interrupt, .-timer_isr_interrupt
  62              		.section	.text.button_isr_interrupt,"ax",%progbits
  63              		.align	2
  64              		.global	button_isr_interrupt
  65              		.code	16
  66              		.thumb_func
  67              		.type	button_isr_interrupt, %function
  68              	button_isr_interrupt:
  69              	.LFB33:
  26:main.c        **** 
  27:main.c        **** CY_ISR(button_isr_interrupt)
  28:main.c        **** {
  70              		.loc 1 28 0
  71              		.cfi_startproc
  72              		@ args = 0, pretend = 0, frame = 0
  73              		@ frame_needed = 0, uses_anonymous_args = 0
  74 0000 10B5     		push	{r4, lr}
  75              		.cfi_def_cfa_offset 8
  76              		.cfi_offset 4, -8
  77              		.cfi_offset 14, -4
  29:main.c        ****     mode = (mode == 0) ? 1 : 0;
  78              		.loc 1 29 0
  79 0002 054A     		ldr	r2, .L6
  80 0004 1378     		ldrb	r3, [r2]
  81 0006 5942     		rsbs	r1, r3, #0
  82 0008 4B41     		adcs	r3, r3, r1
  83 000a 1370     		strb	r3, [r2]
  30:main.c        ****     counter = 0;
  84              		.loc 1 30 0
ARM GAS  C:\Users\bibiw\AppData\Local\Temp\ccgGf511.s 			page 3


  85 000c 0022     		movs	r2, #0
  86 000e 034B     		ldr	r3, .L6+4
  87 0010 1A70     		strb	r2, [r3]
  31:main.c        ****     Button_1_ClearInterrupt();
  88              		.loc 1 31 0
  89 0012 FFF7FEFF 		bl	Button_1_ClearInterrupt
  90              	.LVL1:
  32:main.c        **** }
  91              		.loc 1 32 0
  92              		@ sp needed
  93 0016 10BD     		pop	{r4, pc}
  94              	.L7:
  95              		.align	2
  96              	.L6:
  97 0018 00000000 		.word	mode
  98 001c 00000000 		.word	counter
  99              		.cfi_endproc
 100              	.LFE33:
 101              		.size	button_isr_interrupt, .-button_isr_interrupt
 102              		.section	.text.main,"ax",%progbits
 103              		.align	2
 104              		.global	main
 105              		.code	16
 106              		.thumb_func
 107              		.type	main, %function
 108              	main:
 109              	.LFB34:
  33:main.c        **** 
  34:main.c        **** int main(void)
  35:main.c        **** {
 110              		.loc 1 35 0
 111              		.cfi_startproc
 112              		@ Volatile: function does not return.
 113              		@ args = 0, pretend = 0, frame = 0
 114              		@ frame_needed = 0, uses_anonymous_args = 0
 115 0000 10B5     		push	{r4, lr}
 116              		.cfi_def_cfa_offset 8
 117              		.cfi_offset 4, -8
 118              		.cfi_offset 14, -4
  36:main.c        ****     CyGlobalIntEnable; 
 119              		.loc 1 36 0
 120              		.syntax divided
 121              	@ 36 "main.c" 1
 122 0002 62B6     		CPSIE   i
 123              	@ 0 "" 2
  37:main.c        ****     
  38:main.c        ****     timer_isr_StartEx(timer_isr_interrupt);
 124              		.loc 1 38 0
 125              		.thumb
 126              		.syntax unified
 127 0004 2D48     		ldr	r0, .L30
 128 0006 FFF7FEFF 		bl	timer_isr_StartEx
 129              	.LVL2:
  39:main.c        ****     button_isr_StartEx(button_isr_interrupt);
 130              		.loc 1 39 0
 131 000a 2D48     		ldr	r0, .L30+4
 132 000c FFF7FEFF 		bl	button_isr_StartEx
ARM GAS  C:\Users\bibiw\AppData\Local\Temp\ccgGf511.s 			page 4


 133              	.LVL3:
  40:main.c        ****     Timer_Counter_Start();
 134              		.loc 1 40 0
 135 0010 FFF7FEFF 		bl	Timer_Counter_Start
 136              	.LVL4:
 137              	.L9:
  41:main.c        **** 
  42:main.c        ****     
  43:main.c        ****     for(;;)
  44:main.c        ****     {
  45:main.c        ****         if (mode) 
 138              		.loc 1 45 0
 139 0014 2B4B     		ldr	r3, .L30+8
 140 0016 1B78     		ldrb	r3, [r3]
 141 0018 002B     		cmp	r3, #0
 142 001a 27D0     		beq	.L11
  46:main.c        ****         {
  47:main.c        ****             switch(counter) 
 143              		.loc 1 47 0
 144 001c 2A4B     		ldr	r3, .L30+12
 145 001e 1A78     		ldrb	r2, [r3]
 146 0020 112A     		cmp	r2, #17
 147 0022 F7D8     		bhi	.L9
 148 0024 9300     		lsls	r3, r2, #2
 149 0026 294A     		ldr	r2, .L30+16
 150 0028 D358     		ldr	r3, [r2, r3]
 151 002a 9F46     		mov	pc, r3
 152              		.section	.rodata
 153              		.align	2
 154              	.L13:
 155 0000 2C000000 		.word	.L12
 156 0004 14000000 		.word	.L9
 157 0008 14000000 		.word	.L9
 158 000c 14000000 		.word	.L9
 159 0010 14000000 		.word	.L9
 160 0014 14000000 		.word	.L9
 161 0018 34000000 		.word	.L14
 162 001c 14000000 		.word	.L9
 163 0020 3C000000 		.word	.L15
 164 0024 14000000 		.word	.L9
 165 0028 14000000 		.word	.L9
 166 002c 14000000 		.word	.L9
 167 0030 14000000 		.word	.L9
 168 0034 44000000 		.word	.L16
 169 0038 4C000000 		.word	.L17
 170 003c 54000000 		.word	.L18
 171 0040 5C000000 		.word	.L19
 172 0044 64000000 		.word	.L20
 173              		.section	.text.main
 174              	.L12:
  48:main.c        ****             {
  49:main.c        ****                 case 0:
  50:main.c        ****                 Control_Reg_Write(0b100);
 175              		.loc 1 50 0
 176 002c 0420     		movs	r0, #4
 177 002e FFF7FEFF 		bl	Control_Reg_Write
 178              	.LVL5:
ARM GAS  C:\Users\bibiw\AppData\Local\Temp\ccgGf511.s 			page 5


  51:main.c        ****                 break;
 179              		.loc 1 51 0
 180 0032 EFE7     		b	.L9
 181              	.L14:
  52:main.c        ****                 case 6:
  53:main.c        ****                 Control_Reg_Write(0b110);
 182              		.loc 1 53 0
 183 0034 0620     		movs	r0, #6
 184 0036 FFF7FEFF 		bl	Control_Reg_Write
 185              	.LVL6:
  54:main.c        ****                 break;
 186              		.loc 1 54 0
 187 003a EBE7     		b	.L9
 188              	.L15:
  55:main.c        ****                 case 8:
  56:main.c        ****                 Control_Reg_Write(0b001);
 189              		.loc 1 56 0
 190 003c 0120     		movs	r0, #1
 191 003e FFF7FEFF 		bl	Control_Reg_Write
 192              	.LVL7:
  57:main.c        ****                 break;
 193              		.loc 1 57 0
 194 0042 E7E7     		b	.L9
 195              	.L16:
  58:main.c        ****                 case 13:
  59:main.c        ****                 Control_Reg_Write(0b000);
 196              		.loc 1 59 0
 197 0044 0020     		movs	r0, #0
 198 0046 FFF7FEFF 		bl	Control_Reg_Write
 199              	.LVL8:
  60:main.c        ****                 break;
 200              		.loc 1 60 0
 201 004a E3E7     		b	.L9
 202              	.L17:
  61:main.c        ****                 case 14:
  62:main.c        ****                 Control_Reg_Write(0b001);
 203              		.loc 1 62 0
 204 004c 0120     		movs	r0, #1
 205 004e FFF7FEFF 		bl	Control_Reg_Write
 206              	.LVL9:
  63:main.c        ****                 break;
 207              		.loc 1 63 0
 208 0052 DFE7     		b	.L9
 209              	.L18:
  64:main.c        ****                 case 15:
  65:main.c        ****                 Control_Reg_Write(0b000);
 210              		.loc 1 65 0
 211 0054 0020     		movs	r0, #0
 212 0056 FFF7FEFF 		bl	Control_Reg_Write
 213              	.LVL10:
  66:main.c        ****                 break;
 214              		.loc 1 66 0
 215 005a DBE7     		b	.L9
 216              	.L19:
  67:main.c        ****                 case 16:
  68:main.c        ****                 Control_Reg_Write(0b001);
 217              		.loc 1 68 0
ARM GAS  C:\Users\bibiw\AppData\Local\Temp\ccgGf511.s 			page 6


 218 005c 0120     		movs	r0, #1
 219 005e FFF7FEFF 		bl	Control_Reg_Write
 220              	.LVL11:
  69:main.c        ****                 break;
 221              		.loc 1 69 0
 222 0062 D7E7     		b	.L9
 223              	.L20:
  70:main.c        ****                 case 17:
  71:main.c        ****                 Control_Reg_Write(0b010);
 224              		.loc 1 71 0
 225 0064 0220     		movs	r0, #2
 226 0066 FFF7FEFF 		bl	Control_Reg_Write
 227              	.LVL12:
  72:main.c        ****                 break;
 228              		.loc 1 72 0
 229 006a D3E7     		b	.L9
 230              	.L11:
  73:main.c        ****                 default:
  74:main.c        ****                 break;
  75:main.c        ****             }
  76:main.c        ****         } 
  77:main.c        ****         else 
  78:main.c        ****         { 
  79:main.c        ****             switch(counter) 
 231              		.loc 1 79 0
 232 006c 164B     		ldr	r3, .L30+12
 233 006e 1A78     		ldrb	r2, [r3]
 234 0070 112A     		cmp	r2, #17
 235 0072 CFD8     		bhi	.L9
 236 0074 9300     		lsls	r3, r2, #2
 237 0076 164A     		ldr	r2, .L30+20
 238 0078 D358     		ldr	r3, [r2, r3]
 239 007a 9F46     		mov	pc, r3
 240              		.section	.rodata
 241              		.align	2
 242              	.L22:
 243 0048 7C000000 		.word	.L21
 244 004c 14000000 		.word	.L9
 245 0050 84000000 		.word	.L23
 246 0054 8C000000 		.word	.L24
 247 0058 94000000 		.word	.L25
 248 005c 9C000000 		.word	.L26
 249 0060 A4000000 		.word	.L27
 250 0064 14000000 		.word	.L9
 251 0068 AC000000 		.word	.L28
 252 006c 14000000 		.word	.L9
 253 0070 14000000 		.word	.L9
 254 0074 14000000 		.word	.L9
 255 0078 14000000 		.word	.L9
 256 007c 14000000 		.word	.L9
 257 0080 14000000 		.word	.L9
 258 0084 14000000 		.word	.L9
 259 0088 14000000 		.word	.L9
 260 008c B4000000 		.word	.L29
 261              		.section	.text.main
 262              	.L21:
  80:main.c        ****             {
ARM GAS  C:\Users\bibiw\AppData\Local\Temp\ccgGf511.s 			page 7


  81:main.c        ****                 case 0:
  82:main.c        ****                 Control_Reg_Write(0b001);
 263              		.loc 1 82 0
 264 007c 0120     		movs	r0, #1
 265 007e FFF7FEFF 		bl	Control_Reg_Write
 266              	.LVL13:
  83:main.c        ****                 break;
 267              		.loc 1 83 0
 268 0082 C7E7     		b	.L9
 269              	.L23:
  84:main.c        ****                 case 2:
  85:main.c        ****                 Control_Reg_Write(0b000);
 270              		.loc 1 85 0
 271 0084 0020     		movs	r0, #0
 272 0086 FFF7FEFF 		bl	Control_Reg_Write
 273              	.LVL14:
  86:main.c        ****                 break;
 274              		.loc 1 86 0
 275 008a C3E7     		b	.L9
 276              	.L24:
  87:main.c        ****                 case 3:
  88:main.c        ****                 Control_Reg_Write(0b001);
 277              		.loc 1 88 0
 278 008c 0120     		movs	r0, #1
 279 008e FFF7FEFF 		bl	Control_Reg_Write
 280              	.LVL15:
  89:main.c        ****                 break;
 281              		.loc 1 89 0
 282 0092 BFE7     		b	.L9
 283              	.L25:
  90:main.c        ****                 case 4:
  91:main.c        ****                 Control_Reg_Write(0b000);
 284              		.loc 1 91 0
 285 0094 0020     		movs	r0, #0
 286 0096 FFF7FEFF 		bl	Control_Reg_Write
 287              	.LVL16:
  92:main.c        ****                 break;
 288              		.loc 1 92 0
 289 009a BBE7     		b	.L9
 290              	.L26:
  93:main.c        ****                 case 5:
  94:main.c        ****                 Control_Reg_Write(0b001);
 291              		.loc 1 94 0
 292 009c 0120     		movs	r0, #1
 293 009e FFF7FEFF 		bl	Control_Reg_Write
 294              	.LVL17:
  95:main.c        ****                 break;
 295              		.loc 1 95 0
 296 00a2 B7E7     		b	.L9
 297              	.L27:
  96:main.c        ****                 case 6:
  97:main.c        ****                 Control_Reg_Write(0b010);
 298              		.loc 1 97 0
 299 00a4 0220     		movs	r0, #2
 300 00a6 FFF7FEFF 		bl	Control_Reg_Write
 301              	.LVL18:
  98:main.c        ****                 break;
ARM GAS  C:\Users\bibiw\AppData\Local\Temp\ccgGf511.s 			page 8


 302              		.loc 1 98 0
 303 00aa B3E7     		b	.L9
 304              	.L28:
  99:main.c        ****                 case 8:
 100:main.c        ****                 Control_Reg_Write(0b100);
 305              		.loc 1 100 0
 306 00ac 0420     		movs	r0, #4
 307 00ae FFF7FEFF 		bl	Control_Reg_Write
 308              	.LVL19:
 101:main.c        ****                 break;
 309              		.loc 1 101 0
 310 00b2 AFE7     		b	.L9
 311              	.L29:
 102:main.c        ****                 case 17:
 103:main.c        ****                 Control_Reg_Write(0b110);
 312              		.loc 1 103 0
 313 00b4 0620     		movs	r0, #6
 314 00b6 FFF7FEFF 		bl	Control_Reg_Write
 315              	.LVL20:
 104:main.c        ****                 break;
 316              		.loc 1 104 0
 317 00ba ABE7     		b	.L9
 318              	.L31:
 319              		.align	2
 320              	.L30:
 321 00bc 00000000 		.word	timer_isr_interrupt
 322 00c0 00000000 		.word	button_isr_interrupt
 323 00c4 00000000 		.word	mode
 324 00c8 00000000 		.word	counter
 325 00cc 00000000 		.word	.L13
 326 00d0 48000000 		.word	.L22
 327              		.cfi_endproc
 328              	.LFE34:
 329              		.size	main, .-main
 330              		.comm	mode,1,1
 331              		.comm	counter,1,1
 332              		.text
 333              	.Letext0:
 334              		.file 2 "Generated_Source\\PSoC4/cytypes.h"
 335              		.file 3 "Generated_Source\\PSoC4/Timer_Counter.h"
 336              		.file 4 "Generated_Source\\PSoC4/Button_1.h"
 337              		.file 5 "Generated_Source\\PSoC4/timer_isr.h"
 338              		.file 6 "Generated_Source\\PSoC4/button_isr.h"
 339              		.file 7 "Generated_Source\\PSoC4/Control_Reg.h"